; Function Attrs: nounwind uwtable
define dso_local void @trigger_front_end_up(ptr noundef %0) local_unnamed_addr #0 {
  %2 = load ptr, ptr @front_end_nodes, align 8
  %3 = ptrtoint ptr %0 to i64
  %4 = ptrtoint ptr %2 to i64
  %5 = sub i64 %3, %4
  %6 = sdiv exact i64 %5, 296
  %7 = tail call i32 @pthread_mutex_lock(ptr noundef nonnull @trigger_mutex) #12
  %.not = icmp eq i32 %7, 0
  br i1 %.not, label %10, label %8

8:                                                ; preds = %1
  %9 = tail call ptr @__errno_location() #13
  store i32 %7, ptr %9, align 4
  tail call void (ptr, ...) @fatal_abort(ptr noundef nonnull @.str.2, ptr noundef nonnull @__func__.trigger_front_end_up) #14
  unreachable

10:                                               ; preds = %1
  %11 = load ptr, ptr @trigger_up_front_end_bitmap, align 8
  %12 = icmp eq ptr %11, null
  br i1 %12, label %13, label %17

13:                                               ; preds = %10
  %14 = load i16, ptr @front_end_node_cnt, align 2
  %15 = zext i16 %14 to i64
  %16 = tail call ptr @bit_alloc(i64 noundef %15) #12
  store ptr %16, ptr @trigger_up_front_end_bitmap, align 8
  br label %17

17:                                               ; preds = %13, %10
  %18 = phi ptr [ %16, %13 ], [ %11, %10 ]
  %sext = shl i64 %6, 32
  %19 = ashr exact i64 %sext, 32
  tail call void @bit_set(ptr noundef %18, i64 noundef %19) #12
  %20 = tail call i32 @pthread_mutex_unlock(ptr noundef nonnull @trigger_mutex) #12
  %.not6 = icmp eq i32 %20, 0
  br i1 %.not6, label %23, label %21

21:                                               ; preds = %17
  %22 = tail call ptr @__errno_location() #13
  store i32 %20, ptr %22, align 4
  tail call void (ptr, ...) @fatal_abort(ptr noundef nonnull @.str.3, ptr noundef nonnull @__func__.trigger_front_end_up) #14
  unreachable

23:                                               ; preds = %17
  ret void
}